target datalayout = "e-m:e-p270:32:32-p271:32:32-p272:64:64-i64:64-i128:128-f80:128-n8:16:32:64-S128"
target triple = "x86_64-unknown-linux-gnu"

%"class.node::tracing::InternalTraceBuffer" = type { %"class.node::MutexBase", i8, i64, ptr, %"class.std::vector", i64, i32, i32 }
%"class.node::MutexBase" = type { %union.pthread_mutex_t }
%union.pthread_mutex_t = type { %struct.__pthread_mutex_s }
%struct.__pthread_mutex_s = type { i32, i32, i32, i32, i32, i16, i16, %struct.__pthread_internal_list }
%struct.__pthread_internal_list = type { ptr, ptr }
%"class.std::vector" = type { %"struct.std::_Vector_base" }
%"struct.std::_Vector_base" = type { %"struct.std::_Vector_base<std::unique_ptr<v8::platform::tracing::TraceBufferChunk>, std::allocator<std::unique_ptr<v8::platform::tracing::TraceBufferChunk>>>::_Vector_impl" }
%"struct.std::_Vector_base<std::unique_ptr<v8::platform::tracing::TraceBufferChunk>, std::allocator<std::unique_ptr<v8::platform::tracing::TraceBufferChunk>>>::_Vector_impl" = type { %"struct.std::_Vector_base<std::unique_ptr<v8::platform::tracing::TraceBufferChunk>, std::allocator<std::unique_ptr<v8::platform::tracing::TraceBufferChunk>>>::_Vector_impl_data" }
%"struct.std::_Vector_base<std::unique_ptr<v8::platform::tracing::TraceBufferChunk>, std::allocator<std::unique_ptr<v8::platform::tracing::TraceBufferChunk>>>::_Vector_impl_data" = type { ptr, ptr, ptr }
%"class.std::unique_ptr.2" = type { %"struct.std::__uniq_ptr_data.3" }
%"struct.std::__uniq_ptr_data.3" = type { %"class.std::__uniq_ptr_impl.4" }
%"class.std::__uniq_ptr_impl.4" = type { %"class.std::tuple.5" }
%"class.std::tuple.5" = type { %"struct.std::_Tuple_impl.6" }
%"struct.std::_Tuple_impl.6" = type { %"struct.std::_Head_base.9" }
%"struct.std::_Head_base.9" = type { ptr }
%"class.v8::platform::tracing::TraceBufferChunk" = type <{ i64, [64 x %"class.v8::platform::tracing::TraceObject"], i32, [4 x i8] }>
%"class.v8::platform::tracing::TraceObject" = type { i32, i32, i8, ptr, ptr, ptr, i64, i64, i32, [2 x ptr], [2 x i8], [2 x %"union.v8::platform::tracing::TraceObject::ArgValue"], [2 x %"class.std::unique_ptr"], ptr, i32, i64, i64, i64, i64 }
%"union.v8::platform::tracing::TraceObject::ArgValue" = type { i64 }
%"class.std::unique_ptr" = type { %"struct.std::__uniq_ptr_data" }
%"struct.std::__uniq_ptr_data" = type { %"class.std::__uniq_ptr_impl" }
%"class.std::__uniq_ptr_impl" = type { %"class.std::tuple" }
%"class.std::tuple" = type { %"struct.std::_Tuple_impl" }
%"struct.std::_Tuple_impl" = type { %"struct.std::_Head_base.1" }
%"struct.std::_Head_base.1" = type { ptr }
%"class.node::tracing::NodeTraceBuffer" = type { %"class.v8::platform::tracing::TraceBuffer", ptr, %struct.uv_async_s, %struct.uv_async_s, i8, %"class.node::MutexBase", %"class.node::ConditionVariableBase", %"struct.std::atomic", %"class.node::tracing::InternalTraceBuffer", %"class.node::tracing::InternalTraceBuffer" }
%"class.v8::platform::tracing::TraceBuffer" = type { ptr }
%struct.uv_async_s = type { ptr, ptr, i32, ptr, %struct.uv__queue, %union.anon.10, ptr, i32, ptr, %struct.uv__queue, i32 }
%union.anon.10 = type { [4 x ptr] }
%struct.uv__queue = type { ptr, ptr }
%"class.node::ConditionVariableBase" = type { %union.pthread_cond_t }
%union.pthread_cond_t = type { %struct.__pthread_cond_s }
%struct.__pthread_cond_s = type { %union.__atomic_wide_counter, %union.__atomic_wide_counter, [2 x i32], [2 x i32], i32, i32, [2 x i32] }
%union.__atomic_wide_counter = type { i64 }
%"struct.std::atomic" = type { %"struct.std::__atomic_base" }
%"struct.std::__atomic_base" = type { ptr }

; Function Attrs: mustprogress nounwind uwtable
define linkonce_odr dso_local noundef nonnull align 8 dereferenceable(8) ptr @_ZNSt10_Head_baseILm0EPN2v88platform7tracing16TraceBufferChunkELb0EE7_M_headERKS5_(ptr noundef nonnull align 8 dereferenceable(8) %__b) #0 comdat align 2 {
entry:
  %__b.addr = alloca ptr, align 8
  store ptr %__b, ptr %__b.addr, align 8
  %0 = load ptr, ptr %__b.addr, align 8
  %_M_head_impl = getelementptr inbounds %"struct.std::_Head_base.9", ptr %0, i32 0, i32 0
  ret ptr %_M_head_impl
}

; Function Attrs: mustprogress nounwind uwtable
define linkonce_odr dso_local noundef nonnull align 8 dereferenceable(8) ptr @_ZNSt11_Tuple_implILm0EJPN2v88platform7tracing16TraceBufferChunkESt14default_deleteIS3_EEE7_M_headERKS7_(ptr noundef nonnull align 8 dereferenceable(8) %__t) #0 comdat align 2 {
entry:
  %__t.addr = alloca ptr, align 8
  store ptr %__t, ptr %__t.addr, align 8
  %0 = load ptr, ptr %__t.addr, align 8
  %call = call noundef nonnull align 8 dereferenceable(8) ptr @_ZNSt10_Head_baseILm0EPN2v88platform7tracing16TraceBufferChunkELb0EE7_M_headERKS5_(ptr noundef nonnull align 8 dereferenceable(8) %0) #10
  ret ptr %call
}

; Function Attrs: mustprogress nounwind uwtable
define linkonce_odr dso_local noundef nonnull align 8 dereferenceable(8) ptr @_ZSt12__get_helperILm0EPN2v88platform7tracing16TraceBufferChunkEJSt14default_deleteIS3_EEERKT0_RKSt11_Tuple_implIXT_EJS7_DpT1_EE(ptr noundef nonnull align 8 dereferenceable(8) %__t) #0 comdat {
entry:
  %__t.addr = alloca ptr, align 8
  store ptr %__t, ptr %__t.addr, align 8
  %0 = load ptr, ptr %__t.addr, align 8
  %call = call noundef nonnull align 8 dereferenceable(8) ptr @_ZNSt11_Tuple_implILm0EJPN2v88platform7tracing16TraceBufferChunkESt14default_deleteIS3_EEE7_M_headERKS7_(ptr noundef nonnull align 8 dereferenceable(8) %0) #10
  ret ptr %call
}

; Function Attrs: mustprogress nounwind uwtable
define linkonce_odr dso_local noundef nonnull align 8 dereferenceable(8) ptr @_ZSt3getILm0EJPN2v88platform7tracing16TraceBufferChunkESt14default_deleteIS3_EEERKNSt13tuple_elementIXT_ESt5tupleIJDpT0_EEE4typeERKSB_(ptr noundef nonnull align 8 dereferenceable(8) %__t) #0 comdat {
entry:
  %__t.addr = alloca ptr, align 8
  store ptr %__t, ptr %__t.addr, align 8
  %0 = load ptr, ptr %__t.addr, align 8
  %call = call noundef nonnull align 8 dereferenceable(8) ptr @_ZSt12__get_helperILm0EPN2v88platform7tracing16TraceBufferChunkEJSt14default_deleteIS3_EEERKT0_RKSt11_Tuple_implIXT_EJS7_DpT1_EE(ptr noundef nonnull align 8 dereferenceable(8) %0) #10
  ret ptr %call
}

; Function Attrs: mustprogress nounwind uwtable
define linkonce_odr dso_local noundef ptr @_ZNKSt15__uniq_ptr_implIN2v88platform7tracing16TraceBufferChunkESt14default_deleteIS3_EE6_M_ptrEv(ptr noundef nonnull align 8 dereferenceable(8) %this) #0 comdat align 2 {
entry:
  %this.addr = alloca ptr, align 8
  store ptr %this, ptr %this.addr, align 8
  %this1 = load ptr, ptr %this.addr, align 8
  %_M_t = getelementptr inbounds %"class.std::__uniq_ptr_impl.4", ptr %this1, i32 0, i32 0
  %call = call noundef nonnull align 8 dereferenceable(8) ptr @_ZSt3getILm0EJPN2v88platform7tracing16TraceBufferChunkESt14default_deleteIS3_EEERKNSt13tuple_elementIXT_ESt5tupleIJDpT0_EEE4typeERKSB_(ptr noundef nonnull align 8 dereferenceable(8) %_M_t) #10
  %0 = load ptr, ptr %call, align 8
  ret ptr %0
}

; Function Attrs: mustprogress nounwind uwtable
define linkonce_odr dso_local noundef ptr @_ZNKSt10unique_ptrIN2v88platform7tracing16TraceBufferChunkESt14default_deleteIS3_EE3getEv(ptr noundef nonnull align 8 dereferenceable(8) %this) #0 comdat align 2 {
entry:
  %this.addr = alloca ptr, align 8
  store ptr %this, ptr %this.addr, align 8
  %this1 = load ptr, ptr %this.addr, align 8
  %_M_t = getelementptr inbounds %"class.std::unique_ptr.2", ptr %this1, i32 0, i32 0
  %call = call noundef ptr @_ZNKSt15__uniq_ptr_implIN2v88platform7tracing16TraceBufferChunkESt14default_deleteIS3_EE6_M_ptrEv(ptr noundef nonnull align 8 dereferenceable(8) %_M_t) #10
  ret ptr %call
}

; Function Attrs: mustprogress nounwind uwtable
define linkonce_odr dso_local noundef zeroext i1 @_ZNK2v88platform7tracing16TraceBufferChunk6IsFullEv(ptr noundef nonnull align 8 dereferenceable(10764) %this) #0 comdat align 2 {
entry:
  %this.addr = alloca ptr, align 8
  store ptr %this, ptr %this.addr, align 8
  %this1 = load ptr, ptr %this.addr, align 8
  %next_free_ = getelementptr inbounds %"class.v8::platform::tracing::TraceBufferChunk", ptr %this1, i32 0, i32 0
  %0 = load i64, ptr %next_free_, align 8
  %cmp = icmp eq i64 %0, 64
  ret i1 %cmp
}

; Function Attrs: mustprogress nounwind uwtable
define linkonce_odr dso_local noundef ptr @_ZNKSt10unique_ptrIN2v88platform7tracing16TraceBufferChunkESt14default_deleteIS3_EEptEv(ptr noundef nonnull align 8 dereferenceable(8) %this) #0 comdat align 2 {
entry:
  %this.addr = alloca ptr, align 8
  store ptr %this, ptr %this.addr, align 8
  %this1 = load ptr, ptr %this.addr, align 8
  %call = call noundef ptr @_ZNKSt10unique_ptrIN2v88platform7tracing16TraceBufferChunkESt14default_deleteIS3_EE3getEv(ptr noundef nonnull align 8 dereferenceable(8) %this1) #10
  ret ptr %call
}

; Function Attrs: mustprogress nounwind uwtable
define linkonce_odr dso_local noundef nonnull align 8 dereferenceable(8) ptr @_ZNKSt6vectorISt10unique_ptrIN2v88platform7tracing16TraceBufferChunkESt14default_deleteIS4_EESaIS7_EEixEm(ptr noundef nonnull align 8 dereferenceable(24) %this, i64 noundef %__n) #0 comdat align 2 {
entry:
  %this.addr = alloca ptr, align 8
  %__n.addr = alloca i64, align 8
  store ptr %this, ptr %this.addr, align 8
  store i64 %__n, ptr %__n.addr, align 8
  %this1 = load ptr, ptr %this.addr, align 8
  %_M_impl = getelementptr inbounds %"struct.std::_Vector_base", ptr %this1, i32 0, i32 0
  %_M_start = getelementptr inbounds %"struct.std::_Vector_base<std::unique_ptr<v8::platform::tracing::TraceBufferChunk>, std::allocator<std::unique_ptr<v8::platform::tracing::TraceBufferChunk>>>::_Vector_impl_data", ptr %_M_impl, i32 0, i32 0
  %0 = load ptr, ptr %_M_start, align 8
  %1 = load i64, ptr %__n.addr, align 8
  %add.ptr = getelementptr inbounds %"class.std::unique_ptr.2", ptr %0, i64 %1
  ret ptr %add.ptr
}

; Function Attrs: mustprogress nounwind uwtable
define linkonce_odr dso_local noundef i32 @_ZStanSt12memory_orderSt23__memory_order_modifier(i32 noundef %__m, i32 noundef %__mod) #0 comdat {
entry:
  %__m.addr = alloca i32, align 4
  %__mod.addr = alloca i32, align 4
  store i32 %__m, ptr %__m.addr, align 4
  store i32 %__mod, ptr %__mod.addr, align 4
  %0 = load i32, ptr %__m.addr, align 4
  %1 = load i32, ptr %__mod.addr, align 4
  %and = and i32 %0, %1
  ret i32 %and
}

; Function Attrs: mustprogress nounwind uwtable
define linkonce_odr dso_local void @_ZNSt6atomicIPN4node7tracing19InternalTraceBufferEE5storeES3_St12memory_order(ptr noundef nonnull align 8 dereferenceable(8) %this, ptr noundef %__p, i32 noundef %__m) #0 comdat align 2 {
entry:
  %this.addr.i = alloca ptr, align 8
  %__p.addr.i = alloca ptr, align 8
  %__m.addr.i = alloca i32, align 4
  %__b.i = alloca i32, align 4
  %.atomictmp.i = alloca ptr, align 8
  %this.addr = alloca ptr, align 8
  %__p.addr = alloca ptr, align 8
  %__m.addr = alloca i32, align 4
  store ptr %this, ptr %this.addr, align 8
  store ptr %__p, ptr %__p.addr, align 8
  store i32 %__m, ptr %__m.addr, align 4
  %this1 = load ptr, ptr %this.addr, align 8
  %_M_b = getelementptr inbounds %"struct.std::atomic", ptr %this1, i32 0, i32 0
  %0 = load ptr, ptr %__p.addr, align 8
  %1 = load i32, ptr %__m.addr, align 4
  store ptr %_M_b, ptr %this.addr.i, align 8
  store ptr %0, ptr %__p.addr.i, align 8
  store i32 %1, ptr %__m.addr.i, align 4
  %this1.i = load ptr, ptr %this.addr.i, align 8
  %2 = load i32, ptr %__m.addr.i, align 4
  %call.i = call noundef i32 @_ZStanSt12memory_orderSt23__memory_order_modifier(i32 noundef %2, i32 noundef 65535)
  store i32 %call.i, ptr %__b.i, align 4
  %3 = load i32, ptr %__m.addr.i, align 4
  %4 = load ptr, ptr %__p.addr.i, align 8
  store ptr %4, ptr %.atomictmp.i, align 8
  switch i32 %3, label %monotonic.i [
    i32 3, label %release.i
    i32 5, label %seqcst.i
  ]

monotonic.i:                                      ; preds = %entry
  %5 = load i64, ptr %.atomictmp.i, align 8
  store atomic i64 %5, ptr %this1.i monotonic, align 8
  br label %_ZNSt13__atomic_baseIPN4node7tracing19InternalTraceBufferEE5storeES3_St12memory_order.exit

release.i:                                        ; preds = %entry
  %6 = load i64, ptr %.atomictmp.i, align 8
  store atomic i64 %6, ptr %this1.i release, align 8
  br label %_ZNSt13__atomic_baseIPN4node7tracing19InternalTraceBufferEE5storeES3_St12memory_order.exit

seqcst.i:                                         ; preds = %entry
  %7 = load i64, ptr %.atomictmp.i, align 8
  store atomic i64 %7, ptr %this1.i seq_cst, align 8
  br label %_ZNSt13__atomic_baseIPN4node7tracing19InternalTraceBufferEE5storeES3_St12memory_order.exit

_ZNSt13__atomic_baseIPN4node7tracing19InternalTraceBufferEE5storeES3_St12memory_order.exit: ; preds = %seqcst.i, %release.i, %monotonic.i
  ret void
}

; Function Attrs: mustprogress nounwind uwtable
define linkonce_odr dso_local noundef zeroext i1 @_ZNK4node7tracing19InternalTraceBuffer6IsFullEv(ptr noundef nonnull align 8 dereferenceable(104) %this) #0 comdat align 2 {
entry:
  %this.addr = alloca ptr, align 8
  store ptr %this, ptr %this.addr, align 8
  %this1 = load ptr, ptr %this.addr, align 8
  %total_chunks_ = getelementptr inbounds %"class.node::tracing::InternalTraceBuffer", ptr %this1, i32 0, i32 5
  %0 = load i64, ptr %total_chunks_, align 8
  %max_chunks_ = getelementptr inbounds %"class.node::tracing::InternalTraceBuffer", ptr %this1, i32 0, i32 2
  %1 = load i64, ptr %max_chunks_, align 8
  %cmp = icmp eq i64 %0, %1
  br i1 %cmp, label %land.rhs, label %land.end

land.rhs:                                         ; preds = %entry
  %chunks_ = getelementptr inbounds %"class.node::tracing::InternalTraceBuffer", ptr %this1, i32 0, i32 4
  %total_chunks_2 = getelementptr inbounds %"class.node::tracing::InternalTraceBuffer", ptr %this1, i32 0, i32 5
  %2 = load i64, ptr %total_chunks_2, align 8
  %sub = sub i64 %2, 1
  %call = call noundef nonnull align 8 dereferenceable(8) ptr @_ZNKSt6vectorISt10unique_ptrIN2v88platform7tracing16TraceBufferChunkESt14default_deleteIS4_EESaIS7_EEixEm(ptr noundef nonnull align 8 dereferenceable(24) %chunks_, i64 noundef %sub) #10
  %call3 = call noundef ptr @_ZNKSt10unique_ptrIN2v88platform7tracing16TraceBufferChunkESt14default_deleteIS3_EEptEv(ptr noundef nonnull align 8 dereferenceable(8) %call) #10
  %call4 = call noundef zeroext i1 @_ZNK2v88platform7tracing16TraceBufferChunk6IsFullEv(ptr noundef nonnull align 8 dereferenceable(10764) %call3)
  br label %land.end

land.end:                                         ; preds = %land.rhs, %entry
  %3 = phi i1 [ false, %entry ], [ %call4, %land.rhs ]
  ret i1 %3
}

; Function Attrs: mustprogress nounwind uwtable
define linkonce_odr dso_local noundef ptr @_ZNKSt6atomicIPN4node7tracing19InternalTraceBufferEE4loadESt12memory_order(ptr noundef nonnull align 8 dereferenceable(8) %this, i32 noundef %__m) #0 comdat align 2 {
entry:
  %this.addr.i = alloca ptr, align 8
  %__m.addr.i = alloca i32, align 4
  %__b.i = alloca i32, align 4
  %atomic-temp.i = alloca ptr, align 8
  %this.addr = alloca ptr, align 8
  %__m.addr = alloca i32, align 4
  store ptr %this, ptr %this.addr, align 8
  store i32 %__m, ptr %__m.addr, align 4
  %this1 = load ptr, ptr %this.addr, align 8
  %_M_b = getelementptr inbounds %"struct.std::atomic", ptr %this1, i32 0, i32 0
  %0 = load i32, ptr %__m.addr, align 4
  store ptr %_M_b, ptr %this.addr.i, align 8
  store i32 %0, ptr %__m.addr.i, align 4
  %this1.i = load ptr, ptr %this.addr.i, align 8
  %1 = load i32, ptr %__m.addr.i, align 4
  %call.i = call noundef i32 @_ZStanSt12memory_orderSt23__memory_order_modifier(i32 noundef %1, i32 noundef 65535)
  store i32 %call.i, ptr %__b.i, align 4
  %2 = load i32, ptr %__m.addr.i, align 4
  switch i32 %2, label %monotonic.i [
    i32 1, label %acquire.i
    i32 2, label %acquire.i
    i32 5, label %seqcst.i
  ]

monotonic.i:                                      ; preds = %entry
  %3 = load atomic i64, ptr %this1.i monotonic, align 8
  store i64 %3, ptr %atomic-temp.i, align 8
  br label %_ZNKSt13__atomic_baseIPN4node7tracing19InternalTraceBufferEE4loadESt12memory_order.exit

acquire.i:                                        ; preds = %entry, %entry
  %4 = load atomic i64, ptr %this1.i acquire, align 8
  store i64 %4, ptr %atomic-temp.i, align 8
  br label %_ZNKSt13__atomic_baseIPN4node7tracing19InternalTraceBufferEE4loadESt12memory_order.exit

seqcst.i:                                         ; preds = %entry
  %5 = load atomic i64, ptr %this1.i seq_cst, align 8
  store i64 %5, ptr %atomic-temp.i, align 8
  br label %_ZNKSt13__atomic_baseIPN4node7tracing19InternalTraceBufferEE4loadESt12memory_order.exit

_ZNKSt13__atomic_baseIPN4node7tracing19InternalTraceBufferEE4loadESt12memory_order.exit: ; preds = %seqcst.i, %acquire.i, %monotonic.i
  %6 = load ptr, ptr %atomic-temp.i, align 8
  ret ptr %6
}

; Function Attrs: mustprogress nounwind uwtable
define dso_local noundef zeroext i1 @_ZN4node7tracing15NodeTraceBuffer22TryLoadAvailableBufferEv(ptr noundef nonnull align 8 dereferenceable(584) %this) #0 align 2 {
entry:
  %retval = alloca i1, align 1
  %this.addr = alloca ptr, align 8
  %prev_buf = alloca ptr, align 8
  %other_buf = alloca ptr, align 8
  store ptr %this, ptr %this.addr, align 8
  %this1 = load ptr, ptr %this.addr, align 8
  %current_buf_ = getelementptr inbounds %"class.node::tracing::NodeTraceBuffer", ptr %this1, i32 0, i32 7
  %call = call noundef ptr @_ZNKSt6atomicIPN4node7tracing19InternalTraceBufferEE4loadESt12memory_order(ptr noundef nonnull align 8 dereferenceable(8) %current_buf_, i32 noundef 5) #10
  store ptr %call, ptr %prev_buf, align 8
  %0 = load ptr, ptr %prev_buf, align 8
  %call2 = call noundef zeroext i1 @_ZNK4node7tracing19InternalTraceBuffer6IsFullEv(ptr noundef nonnull align 8 dereferenceable(104) %0)
  br i1 %call2, label %if.then, label %if.end8

if.then:                                          ; preds = %entry
  %flush_signal_ = getelementptr inbounds %"class.node::tracing::NodeTraceBuffer", ptr %this1, i32 0, i32 2
  %call3 = call i32 @uv_async_send(ptr noundef %flush_signal_)
  %1 = load ptr, ptr %prev_buf, align 8
  %buffer1_ = getelementptr inbounds %"class.node::tracing::NodeTraceBuffer", ptr %this1, i32 0, i32 8
  %cmp = icmp eq ptr %1, %buffer1_
  br i1 %cmp, label %cond.true, label %cond.false

cond.true:                                        ; preds = %if.then
  %buffer2_ = getelementptr inbounds %"class.node::tracing::NodeTraceBuffer", ptr %this1, i32 0, i32 9
  br label %cond.end

cond.false:                                       ; preds = %if.then
  %buffer1_4 = getelementptr inbounds %"class.node::tracing::NodeTraceBuffer", ptr %this1, i32 0, i32 8
  br label %cond.end

cond.end:                                         ; preds = %cond.false, %cond.true
  %cond = phi ptr [ %buffer2_, %cond.true ], [ %buffer1_4, %cond.false ]
  store ptr %cond, ptr %other_buf, align 8
  %2 = load ptr, ptr %other_buf, align 8
  %call5 = call noundef zeroext i1 @_ZNK4node7tracing19InternalTraceBuffer6IsFullEv(ptr noundef nonnull align 8 dereferenceable(104) %2)
  br i1 %call5, label %if.else, label %if.then6

if.then6:                                         ; preds = %cond.end
  %current_buf_7 = getelementptr inbounds %"class.node::tracing::NodeTraceBuffer", ptr %this1, i32 0, i32 7
  %3 = load ptr, ptr %other_buf, align 8
  call void @_ZNSt6atomicIPN4node7tracing19InternalTraceBufferEE5storeES3_St12memory_order(ptr noundef nonnull align 8 dereferenceable(8) %current_buf_7, ptr noundef %3, i32 noundef 5) #10
  br label %if.end

if.else:                                          ; preds = %cond.end
  store i1 false, ptr %retval, align 1
  br label %return

if.end:                                           ; preds = %if.then6
  br label %if.end8

if.end8:                                          ; preds = %if.end, %entry
  store i1 true, ptr %retval, align 1
  br label %return

return:                                           ; preds = %if.end8, %if.else
  %4 = load i1, ptr %retval, align 1
  ret i1 %4
}