; Function Attrs: mustprogress nounwind uwtable
define dso_local noundef zeroext i1 @_ZN4node7tracing15NodeTraceBuffer22TryLoadAvailableBufferEv(ptr noundef nonnull align 8 dereferenceable(584) %this) local_unnamed_addr #0 align 2 {
entry:
  %current_buf_ = getelementptr inbounds i8, ptr %this, i64 368
  %0 = load atomic i64, ptr %current_buf_ seq_cst, align 8
  %atomic-temp.i.0.i = inttoptr i64 %0 to ptr
  %total_chunks_.i = getelementptr inbounds i8, ptr %atomic-temp.i.0.i, i64 88
  %1 = load i64, ptr %total_chunks_.i, align 8
  %max_chunks_.i = getelementptr inbounds i8, ptr %atomic-temp.i.0.i, i64 48
  %2 = load i64, ptr %max_chunks_.i, align 8
  %cmp.i = icmp eq i64 %1, %2
  br i1 %cmp.i, label %_ZNK4node7tracing19InternalTraceBuffer6IsFullEv.exit, label %return

_ZNK4node7tracing19InternalTraceBuffer6IsFullEv.exit: ; preds = %entry
  %chunks_.i = getelementptr inbounds i8, ptr %atomic-temp.i.0.i, i64 64
  %3 = load ptr, ptr %chunks_.i, align 8
  %4 = getelementptr %"class.std::unique_ptr.2", ptr %3, i64 %1
  %add.ptr.i.i = getelementptr i8, ptr %4, i64 -8
  %5 = load ptr, ptr %add.ptr.i.i, align 8
  %6 = load i64, ptr %5, align 8
  %cmp.i.i = icmp eq i64 %6, 64
  br i1 %cmp.i.i, label %if.then, label %return

if.then:                                          ; preds = %_ZNK4node7tracing19InternalTraceBuffer6IsFullEv.exit
  %flush_signal_ = getelementptr inbounds i8, ptr %this, i64 16
  %call3 = tail call i32 @uv_async_send(ptr noundef nonnull %flush_signal_) #13
  %buffer1_ = getelementptr inbounds i8, ptr %this, i64 376
  %cmp = icmp eq ptr %buffer1_, %atomic-temp.i.0.i
  %buffer2_ = getelementptr inbounds i8, ptr %this, i64 480
  %cond = select i1 %cmp, ptr %buffer2_, ptr %buffer1_
  %total_chunks_.i3 = getelementptr inbounds i8, ptr %cond, i64 88
  %7 = load i64, ptr %total_chunks_.i3, align 8
  %max_chunks_.i4 = getelementptr inbounds i8, ptr %cond, i64 48
  %8 = load i64, ptr %max_chunks_.i4, align 8
  %cmp.i5 = icmp eq i64 %7, %8
  br i1 %cmp.i5, label %_ZNK4node7tracing19InternalTraceBuffer6IsFullEv.exit10, label %if.then6

_ZNK4node7tracing19InternalTraceBuffer6IsFullEv.exit10: ; preds = %if.then
  %chunks_.i7 = getelementptr inbounds i8, ptr %cond, i64 64
  %9 = load ptr, ptr %chunks_.i7, align 8
  %10 = getelementptr %"class.std::unique_ptr.2", ptr %9, i64 %7
  %add.ptr.i.i8 = getelementptr i8, ptr %10, i64 -8
  %11 = load ptr, ptr %add.ptr.i.i8, align 8
  %12 = load i64, ptr %11, align 8
  %cmp.i.i9 = icmp eq i64 %12, 64
  br i1 %cmp.i.i9, label %return, label %if.then6

if.then6:                                         ; preds = %if.then, %_ZNK4node7tracing19InternalTraceBuffer6IsFullEv.exit10
  %13 = ptrtoint ptr %cond to i64
  store atomic i64 %13, ptr %current_buf_ seq_cst, align 8
  br label %return

return:                                           ; preds = %entry, %_ZNK4node7tracing19InternalTraceBuffer6IsFullEv.exit, %if.then6, %_ZNK4node7tracing19InternalTraceBuffer6IsFullEv.exit10
  %retval.0 = phi i1 [ false, %_ZNK4node7tracing19InternalTraceBuffer6IsFullEv.exit10 ], [ true, %if.then6 ], [ true, %_ZNK4node7tracing19InternalTraceBuffer6IsFullEv.exit ], [ true, %entry ]
  ret i1 %retval.0
}